; Function Attrs: nounwind uwtable
define internal fastcc void @zend_compile_expr(ptr noundef %0, ptr noundef %1) unnamed_addr #0 {
  %3 = load ptr, ptr getelementptr inbounds (%struct._zend_executor_globals, ptr @executor_globals, i64 0, i32 32), align 8
  %4 = tail call ptr @llvm.frameaddress.p0(i32 0)
  %.not.i = icmp ugt ptr %4, %3
  br i1 %.not.i, label %zend_check_stack_limit.exit, label %5

5:                                                ; preds = %2
  %6 = load ptr, ptr getelementptr inbounds (%struct._zend_executor_globals, ptr @executor_globals, i64 0, i32 31), align 8
  %7 = ptrtoint ptr %6 to i64
  %8 = ptrtoint ptr %3 to i64
  %9 = sub i64 %7, %8
  tail call void (i32, ptr, ...) @zend_error_noreturn(i32 noundef 64, ptr noundef nonnull @.str.282, i64 noundef %9) #31
  unreachable

zend_check_stack_limit.exit:                      ; preds = %2
  %10 = tail call i32 @zend_stack_count(ptr noundef nonnull getelementptr inbounds (%struct._zend_compiler_globals, ptr @compiler_globals, i64 0, i32 45)) #30
  tail call fastcc void @zend_compile_expr_inner(ptr noundef %0, ptr noundef %1)
  tail call fastcc void @zend_short_circuiting_commit(i32 noundef %10, ptr noundef %0, ptr noundef %1)
  ret void
}